target datalayout = "e-m:e-p270:32:32-p271:32:32-p272:64:64-i64:64-i128:128-f80:128-n8:16:32:64-S128"
target triple = "x86_64-pc-linux-gnu"

%"struct.Luau::FValue" = type { i8, i8, ptr, ptr }
%struct.lua_State = type { i8, i8, i8, i8, i8, i8, i8, ptr, ptr, ptr, ptr, ptr, ptr, ptr, ptr, i32, i32, i16, i16, i32, ptr, ptr, ptr, ptr, ptr }
%struct.lua_TValue = type { %union.Value, [1 x i32], i32 }
%union.Value = type { ptr }

@_ZN6DFFlag19LuauPopIncompleteCiE = dso_local global %"struct.Luau::FValue" zeroinitializer, align 8

; Function Attrs: alwaysinline mustprogress nounwind uwtable
define linkonce_odr dso_local noundef zeroext i1 @_ZNK4Luau6FValueIbEcvbEv(ptr noundef nonnull align 8 dereferenceable(24) %0) #9 comdat align 2 {
  %2 = alloca ptr, align 8
  store ptr %0, ptr %2, align 8, !tbaa !4
  %3 = load ptr, ptr %2, align 8
  %4 = getelementptr inbounds nuw %"struct.Luau::FValue", ptr %3, i32 0, i32 0
  %5 = load i8, ptr %4, align 8, !tbaa !15, !range !13, !noundef !14
  %6 = trunc i8 %5 to i1
  ret i1 %6
}

; Function Attrs: mustprogress uwtable
define hidden void @_Z14luaD_growstackP9lua_Statei(ptr noundef %0, i32 noundef %1) #2 {
  %3 = alloca ptr, align 8
  %4 = alloca i32, align 4
  store ptr %0, ptr %3, align 8, !tbaa !20
  store i32 %1, ptr %4, align 4, !tbaa !23
  %5 = call noundef zeroext i1 @_ZNK4Luau6FValueIbEcvbEv(ptr noundef nonnull align 8 dereferenceable(24) @_ZN6DFFlag19LuauPopIncompleteCiE)
  br i1 %5, label %6, label %26

6:                                                ; preds = %2
  %7 = load ptr, ptr %3, align 8, !tbaa !20
  %8 = load i32, ptr %4, align 4, !tbaa !23
  %9 = load ptr, ptr %3, align 8, !tbaa !20
  %10 = getelementptr inbounds nuw %struct.lua_State, ptr %9, i32 0, i32 15
  %11 = load i32, ptr %10, align 8, !tbaa !54
  %12 = icmp sle i32 %8, %11
  br i1 %12, label %13, label %18

13:                                               ; preds = %6
  %14 = load ptr, ptr %3, align 8, !tbaa !20
  %15 = getelementptr inbounds nuw %struct.lua_State, ptr %14, i32 0, i32 15
  %16 = load i32, ptr %15, align 8, !tbaa !54
  %17 = mul nsw i32 2, %16
  br label %24

18:                                               ; preds = %6
  %19 = load ptr, ptr %3, align 8, !tbaa !20
  %20 = getelementptr inbounds nuw %struct.lua_State, ptr %19, i32 0, i32 15
  %21 = load i32, ptr %20, align 8, !tbaa !54
  %22 = load i32, ptr %4, align 4, !tbaa !23
  %23 = add nsw i32 %21, %22
  br label %24

24:                                               ; preds = %18, %13
  %25 = phi i32 [ %17, %13 ], [ %23, %18 ]
  call void @_Z17luaD_reallocstackP9lua_Stateii(ptr noundef %7, i32 noundef %25, i32 noundef 0)
  br label %46

26:                                               ; preds = %2
  %27 = load i32, ptr %4, align 4, !tbaa !23
  %28 = load ptr, ptr %3, align 8, !tbaa !20
  %29 = getelementptr inbounds nuw %struct.lua_State, ptr %28, i32 0, i32 15
  %30 = load i32, ptr %29, align 8, !tbaa !54
  %31 = icmp sle i32 %27, %30
  br i1 %31, label %32, label %38

32:                                               ; preds = %26
  %33 = load ptr, ptr %3, align 8, !tbaa !20
  %34 = load ptr, ptr %3, align 8, !tbaa !20
  %35 = getelementptr inbounds nuw %struct.lua_State, ptr %34, i32 0, i32 15
  %36 = load i32, ptr %35, align 8, !tbaa !54
  %37 = mul nsw i32 2, %36
  call void @_Z17luaD_reallocstackP9lua_Stateii(ptr noundef %33, i32 noundef %37, i32 noundef 0)
  br label %45

38:                                               ; preds = %26
  %39 = load ptr, ptr %3, align 8, !tbaa !20
  %40 = load ptr, ptr %3, align 8, !tbaa !20
  %41 = getelementptr inbounds nuw %struct.lua_State, ptr %40, i32 0, i32 15
  %42 = load i32, ptr %41, align 8, !tbaa !54
  %43 = load i32, ptr %4, align 4, !tbaa !23
  %44 = add nsw i32 %42, %43
  call void @_Z17luaD_reallocstackP9lua_Stateii(ptr noundef %39, i32 noundef %44, i32 noundef 0)
  br label %45

45:                                               ; preds = %38, %32
  br label %46

46:                                               ; preds = %45, %24
  ret void
}

; Function Attrs: mustprogress uwtable
define internal void @_ZL11callerrfuncP9lua_StatePv(ptr noundef %0, ptr noundef %1) #2 {
  %3 = alloca ptr, align 8
  %4 = alloca ptr, align 8
  %5 = alloca ptr, align 8
  %6 = alloca ptr, align 8
  %7 = alloca ptr, align 8
  %8 = alloca ptr, align 8
  %9 = alloca ptr, align 8
  store ptr %0, ptr %3, align 8, !tbaa !20
  store ptr %1, ptr %4, align 8, !tbaa !22
  call void @llvm.lifetime.start.p0(i64 8, ptr %5) #15
  %10 = load ptr, ptr %4, align 8, !tbaa !22
  store ptr %10, ptr %5, align 8, !tbaa !53
  call void @llvm.lifetime.start.p0(i64 8, ptr %6) #15
  %11 = load ptr, ptr %3, align 8, !tbaa !20
  %12 = getelementptr inbounds nuw %struct.lua_State, ptr %11, i32 0, i32 7
  %13 = load ptr, ptr %12, align 8, !tbaa !51
  %14 = getelementptr inbounds %struct.lua_TValue, ptr %13, i64 -1
  store ptr %14, ptr %6, align 8, !tbaa !53
  call void @llvm.lifetime.start.p0(i64 8, ptr %7) #15
  %15 = load ptr, ptr %3, align 8, !tbaa !20
  %16 = getelementptr inbounds nuw %struct.lua_State, ptr %15, i32 0, i32 7
  %17 = load ptr, ptr %16, align 8, !tbaa !51
  store ptr %17, ptr %7, align 8, !tbaa !53
  %18 = load ptr, ptr %6, align 8, !tbaa !53
  %19 = load ptr, ptr %7, align 8, !tbaa !53
  call void @llvm.memcpy.p0.p0.i64(ptr align 8 %19, ptr align 8 %18, i64 16, i1 false), !tbaa.struct !101
  call void @llvm.lifetime.end.p0(i64 8, ptr %7) #15
  call void @llvm.lifetime.end.p0(i64 8, ptr %6) #15
  call void @llvm.lifetime.start.p0(i64 8, ptr %8) #15
  %20 = load ptr, ptr %5, align 8, !tbaa !53
  store ptr %20, ptr %8, align 8, !tbaa !53
  call void @llvm.lifetime.start.p0(i64 8, ptr %9) #15
  %21 = load ptr, ptr %3, align 8, !tbaa !20
  %22 = getelementptr inbounds nuw %struct.lua_State, ptr %21, i32 0, i32 7
  %23 = load ptr, ptr %22, align 8, !tbaa !51
  %24 = getelementptr inbounds %struct.lua_TValue, ptr %23, i64 -1
  store ptr %24, ptr %9, align 8, !tbaa !53
  %25 = load ptr, ptr %8, align 8, !tbaa !53
  %26 = load ptr, ptr %9, align 8, !tbaa !53
  call void @llvm.memcpy.p0.p0.i64(ptr align 8 %26, ptr align 8 %25, i64 16, i1 false), !tbaa.struct !101
  call void @llvm.lifetime.end.p0(i64 8, ptr %9) #15
  call void @llvm.lifetime.end.p0(i64 8, ptr %8) #15
  %27 = load ptr, ptr %3, align 8, !tbaa !20
  %28 = getelementptr inbounds nuw %struct.lua_State, ptr %27, i32 0, i32 11
  %29 = load ptr, ptr %28, align 8, !tbaa !60
  %30 = load ptr, ptr %3, align 8, !tbaa !20
  %31 = getelementptr inbounds nuw %struct.lua_State, ptr %30, i32 0, i32 7
  %32 = load ptr, ptr %31, align 8, !tbaa !51
  %33 = ptrtoint ptr %29 to i64
  %34 = ptrtoint ptr %32 to i64
  %35 = sub i64 %33, %34
  %36 = icmp sle i64 %35, 16
  br i1 %36, label %37, label %39

37:                                               ; preds = %2
  %38 = load ptr, ptr %3, align 8, !tbaa !20
  call void @_Z14luaD_growstackP9lua_Statei(ptr noundef %38, i32 noundef 1)
  br label %40

39:                                               ; preds = %2
  br label %40

40:                                               ; preds = %39, %37
  %41 = load ptr, ptr %3, align 8, !tbaa !20
  %42 = getelementptr inbounds nuw %struct.lua_State, ptr %41, i32 0, i32 7
  %43 = load ptr, ptr %42, align 8, !tbaa !51
  %44 = getelementptr inbounds nuw %struct.lua_TValue, ptr %43, i32 1
  store ptr %44, ptr %42, align 8, !tbaa !51
  %45 = load ptr, ptr %3, align 8, !tbaa !20
  %46 = load ptr, ptr %3, align 8, !tbaa !20
  %47 = getelementptr inbounds nuw %struct.lua_State, ptr %46, i32 0, i32 7
  %48 = load ptr, ptr %47, align 8, !tbaa !51
  %49 = getelementptr inbounds %struct.lua_TValue, ptr %48, i64 -2
  call void @_Z9luaD_callP9lua_StateP10lua_TValuei(ptr noundef %45, ptr noundef %49, i32 noundef 1)
  call void @llvm.lifetime.end.p0(i64 8, ptr %5) #15
  ret void
}