; Function Attrs: mustprogress uwtable
define internal void @_ZL11callerrfuncP9lua_StatePv(ptr noundef %0, ptr noundef readonly captures(none) %1) #0 {
  %3 = getelementptr inbounds nuw i8, ptr %0, i64 8
  %4 = load ptr, ptr %3, align 8, !tbaa !37
  %5 = getelementptr inbounds i8, ptr %4, i64 -16
  tail call void @llvm.memcpy.p0.p0.i64(ptr noundef nonnull align 8 dereferenceable(16) %4, ptr noundef nonnull align 8 dereferenceable(16) %5, i64 16, i1 false), !tbaa.struct !75
  %6 = load ptr, ptr %3, align 8, !tbaa !37
  %7 = getelementptr inbounds i8, ptr %6, i64 -16
  tail call void @llvm.memcpy.p0.p0.i64(ptr noundef nonnull align 8 dereferenceable(16) %7, ptr noundef nonnull align 8 dereferenceable(16) %1, i64 16, i1 false), !tbaa.struct !75
  %8 = getelementptr inbounds nuw i8, ptr %0, i64 40
  %9 = load ptr, ptr %8, align 8, !tbaa !41
  %10 = load ptr, ptr %3, align 8, !tbaa !37
  %11 = ptrtoint ptr %9 to i64
  %12 = ptrtoint ptr %10 to i64
  %13 = sub i64 %11, %12
  %14 = icmp slt i64 %13, 17
  br i1 %14, label %15, label %29

15:                                               ; preds = %2
  %16 = load i8, ptr @_ZN6DFFlag19LuauPopIncompleteCiE, align 8, !tbaa !15, !range !20, !noundef !21
  %17 = trunc nuw i8 %16 to i1
  %18 = getelementptr inbounds nuw i8, ptr %0, i64 72
  %19 = load i32, ptr %18, align 8, !tbaa !39
  %.not16.i = icmp slt i32 %19, 1
  br i1 %17, label %20, label %24

20:                                               ; preds = %15
  %21 = shl nsw i32 %19, 1
  %22 = add nsw i32 %19, 1
  %23 = select i1 %.not16.i, i32 %22, i32 %21
  br label %_Z14luaD_growstackP9lua_Statei.exit

24:                                               ; preds = %15
  br i1 %.not16.i, label %27, label %25

25:                                               ; preds = %24
  %26 = shl nuw nsw i32 %19, 1
  br label %_Z14luaD_growstackP9lua_Statei.exit

27:                                               ; preds = %24
  %28 = add nsw i32 %19, 1
  br label %_Z14luaD_growstackP9lua_Statei.exit

_Z14luaD_growstackP9lua_Statei.exit:              ; preds = %20, %25, %27
  %.sink.i = phi i32 [ %26, %25 ], [ %28, %27 ], [ %23, %20 ]
  tail call void @_Z17luaD_reallocstackP9lua_Stateii(ptr noundef nonnull %0, i32 noundef %.sink.i, i32 noundef 0)
  %.pre = load ptr, ptr %3, align 8, !tbaa !37
  br label %29

29:                                               ; preds = %2, %_Z14luaD_growstackP9lua_Statei.exit
  %30 = phi ptr [ %10, %2 ], [ %.pre, %_Z14luaD_growstackP9lua_Statei.exit ]
  %31 = getelementptr inbounds nuw i8, ptr %30, i64 16
  store ptr %31, ptr %3, align 8, !tbaa !37
  %32 = getelementptr inbounds i8, ptr %30, i64 -16
  tail call void @_Z9luaD_callP9lua_StateP10lua_TValuei(ptr noundef nonnull %0, ptr noundef nonnull %32, i32 noundef 1)
  ret void
}